; Function Attrs: mustprogress nofree norecurse nosync nounwind willreturn memory(argmem: write) uwtable
define void @_ZN6icu_7511MeasureUnitC2Eii(ptr nocapture noundef nonnull writeonly align 8 dereferenceable(19) %this, i32 noundef %typeId, i32 noundef %subTypeId) unnamed_addr #7 align 2 {
entry:
  store ptr getelementptr inbounds ({ [7 x ptr] }, ptr @_ZTVN6icu_7511MeasureUnitE, i64 0, i32 0, i64 2), ptr %this, align 8
  %fImpl = getelementptr inbounds i8, ptr %this, i64 8
  store ptr null, ptr %fImpl, align 8
  %fSubTypeId = getelementptr inbounds i8, ptr %this, i64 16
  %conv = trunc i32 %subTypeId to i16
  store i16 %conv, ptr %fSubTypeId, align 8
  %fTypeId = getelementptr inbounds i8, ptr %this, i64 18
  %conv2 = trunc i32 %typeId to i8
  store i8 %conv2, ptr %fTypeId, align 2
  ret void
}